(dp1
S'Enstatite'
p2
(dp3
S'natoms'
p4
(lp5
I1
aI1
aI3
asS'Structures'
p6
(dp7
S'plotname'
p8
(lp9
S'Bridgmanite'
p10
aS'Clinoenstatite'
p11
aS'HP-clino'
p12
aS'ilmenite'
p13
aS'ortho'
p14
assS'atoms'
p15
(lp16
S'Mg'
p17
aS'Si'
p18
aS'O'
assS'Brucite'
p19
(dp20
g4
(lp21
I1
aI2
aI2
asg6
(dp22
g8
(lp23
S'P4'
p24
aS'P3'
p25
assg15
(lp26
g17
aS'O'
aS'H'
assS'SiO2'
p27
(dp28
g4
(lp29
I1
aI2
asg6
(dp30
g8
(lp31
S'alpha'
p32
aS'coe'
p33
aS'stishovite'
p34
assg15
(lp35
g18
aS'O'
assS'MgO'
p36
(dp37
g4
(lp38
I1
aI1
asg6
(dp39
g8
(lp40
g36
assg15
(lp41
g17
aS'O'
assS'H2O'
p42
(dp43
g4
(lp44
I1
aI2
asg6
(dp45
g8
(lp46
g42
assg15
(lp47
S'O'
aS'H'
assS'PhaseB'
p48
(dp49
g4
(lp50
I12
aI4
aI21
aI2
asg6
(dp51
g8
(lp52
S'Phase B_struct'
p53
assg15
(lp54
g17
ag18
aS'O'
aS'H'
ass.